; Function Attrs: mustprogress nounwind uwtable
define void @_ZN7rocksdb8IOTracerD2Ev(ptr noundef nonnull align 8 dereferenceable(105) %0) unnamed_addr #1 align 2 personality ptr @__gxx_personality_v0 {
  %2 = getelementptr inbounds nuw i8, ptr %0, i64 32
  invoke void @_ZN7rocksdb17InstrumentedMutex4LockEv(ptr noundef nonnull align 8 dereferenceable(60) %2)
          to label %.noexc unwind label %20

.noexc:                                           ; preds = %1
  %3 = getelementptr inbounds nuw i8, ptr %0, i64 96
  %4 = load atomic i64, ptr %3 seq_cst, align 8
  %.not.i = icmp eq i64 %4, 0
  br i1 %.not.i, label %16, label %5

5:                                                ; preds = %.noexc
  %6 = load atomic i64, ptr %3 seq_cst, align 8
  %.0.i.i1.i = inttoptr i64 %6 to ptr
  %7 = icmp eq i64 %6, 0
  br i1 %7, label %14, label %8

8:                                                ; preds = %5
  %9 = getelementptr inbounds nuw i8, ptr %.0.i.i1.i, i64 40
  %10 = load ptr, ptr %9, align 8, !tbaa !33
  %.not.i.i.i = icmp eq ptr %10, null
  br i1 %.not.i.i.i, label %_ZN7rocksdb13IOTraceWriterD2Ev.exit.i, label %_ZNKSt14default_deleteIN7rocksdb11TraceWriterEEclEPS1_.exit.i.i.i

_ZNKSt14default_deleteIN7rocksdb11TraceWriterEEclEPS1_.exit.i.i.i: ; preds = %8
  %11 = load ptr, ptr %10, align 8, !tbaa !34
  %12 = getelementptr inbounds nuw i8, ptr %11, i64 8
  %13 = load ptr, ptr %12, align 8
  tail call void %13(ptr noundef nonnull align 8 dereferenceable(8) %10) #21
  br label %_ZN7rocksdb13IOTraceWriterD2Ev.exit.i

_ZN7rocksdb13IOTraceWriterD2Ev.exit.i:            ; preds = %_ZNKSt14default_deleteIN7rocksdb11TraceWriterEEclEPS1_.exit.i.i.i, %8
  tail call void @_ZdlPvm(ptr noundef nonnull %.0.i.i1.i, i64 noundef 48) #20
  br label %14

14:                                               ; preds = %_ZN7rocksdb13IOTraceWriterD2Ev.exit.i, %5
  store atomic i64 0, ptr %3 seq_cst, align 8
  %15 = getelementptr inbounds nuw i8, ptr %0, i64 104
  store i8 0, ptr %15, align 8, !tbaa !113
  br label %16

16:                                               ; preds = %14, %.noexc
  invoke void @_ZN7rocksdb4port5Mutex6UnlockEv(ptr noundef nonnull align 8 dereferenceable(60) %2)
          to label %_ZN7rocksdb8IOTracer10EndIOTraceEv.exit unwind label %17

17:                                               ; preds = %16
  %18 = landingpad { ptr, i32 }
          catch ptr null
  %19 = extractvalue { ptr, i32 } %18, 0
  tail call void @__clang_call_terminate(ptr %19) #23
  unreachable

_ZN7rocksdb8IOTracer10EndIOTraceEv.exit:          ; preds = %16
  tail call void @_ZN7rocksdb4port5MutexD1Ev(ptr noundef nonnull align 8 dereferenceable(60) %2) #21
  ret void

20:                                               ; preds = %1
  %21 = landingpad { ptr, i32 }
          catch ptr null
  %22 = extractvalue { ptr, i32 } %21, 0
  tail call void @__clang_call_terminate(ptr %22) #23
  unreachable
}